target datalayout = "e-m:e-p270:32:32-p271:32:32-p272:64:64-i64:64-i128:128-f80:128-n8:16:32:64-S128"
target triple = "x86_64-pc-linux-gnu"

@UseStringDeduplication = external global i8, align 1

; Function Attrs: mustprogress nounwind uwtable
define hidden void @_ZN20ParallelScavengeHeap25safepoint_synchronize_endEv(ptr noundef nonnull align 8 dereferenceable(264) %0) unnamed_addr #1 align 2 {
  %2 = alloca ptr, align 8
  store ptr %0, ptr %2, align 8
  %3 = load i8, ptr @UseStringDeduplication, align 1
  %4 = trunc i8 %3 to i1
  br i1 %4, label %5, label %6

5:                                                ; preds = %1
  call void @_ZN20SuspendibleThreadSet13desynchronizeEv()
  br label %6

6:                                                ; preds = %5, %1
  ret void
}